; ModuleID = '37/595.c'
source_filename = "37/595.c"
target datalayout = "e-m:e-p270:32:32-p271:32:32-p272:64:64-i64:64-f80:128-n8:16:32:64-S128"
target triple = "x86_64-pc-linux-gnu"

@.str = private unnamed_addr constant [3 x i8] c"%d\00", align 1
@.str.1 = private unnamed_addr constant [3 x i8] c"%s\00", align 1
@.str.2 = private unnamed_addr constant [4 x i8] c"no\0A\00", align 1
@.str.3 = private unnamed_addr constant [4 x i8] c"%c\0A\00", align 1

; Function Attrs: noinline nounwind uwtable
define dso_local i32 @main() #0 {
  %1 = alloca i32, align 4
  %2 = alloca [26 x i32], align 16
  %3 = alloca i32, align 4
  %4 = alloca i32, align 4
  %5 = alloca i32, align 4
  %6 = alloca i32, align 4
  %7 = alloca i32, align 4
  %8 = alloca i32, align 4
  %9 = alloca [100000 x i8], align 16
  %10 = alloca i8, align 1
  store i32 0, i32* %1, align 4
  store i8 124, i8* %10, align 1
  %11 = call i32 (i8*, ...) @__isoc99_scanf(i8* getelementptr inbounds ([3 x i8], [3 x i8]* @.str, i64 0, i64 0), i32* %3)
  store i32 1, i32* %5, align 4
  br label %12

12:                                               ; preds = %125, %0
  %13 = load i32, i32* %5, align 4
  %14 = load i32, i32* %3, align 4
  %15 = icmp sle i32 %13, %14
  br i1 %15, label %16, label %128

16:                                               ; preds = %12
  store i8 124, i8* %10, align 1
  store i32 0, i32* %6, align 4
  br label %17

17:                                               ; preds = %24, %16
  %18 = load i32, i32* %6, align 4
  %19 = icmp sle i32 %18, 25
  br i1 %19, label %20, label %27

20:                                               ; preds = %17
  %21 = load i32, i32* %6, align 4
  %22 = sext i32 %21 to i64
  %23 = getelementptr inbounds [26 x i32], [26 x i32]* %2, i64 0, i64 %22
  store i32 0, i32* %23, align 4
  br label %24

24:                                               ; preds = %20
  %25 = load i32, i32* %6, align 4
  %26 = add nsw i32 %25, 1
  store i32 %26, i32* %6, align 4
  br label %17

27:                                               ; preds = %17
  %28 = getelementptr inbounds [100000 x i8], [100000 x i8]* %9, i64 0, i64 0
  %29 = call i32 (i8*, ...) @__isoc99_scanf(i8* getelementptr inbounds ([3 x i8], [3 x i8]* @.str.1, i64 0, i64 0), i8* %28)
  store i32 0, i32* %6, align 4
  br label %30

30:                                               ; preds = %97, %27
  %31 = load i32, i32* %6, align 4
  %32 = sext i32 %31 to i64
  %33 = getelementptr inbounds [100000 x i8], [100000 x i8]* %9, i64 0, i64 0
  %34 = call i64 @strlen(i8* %33) #3
  %35 = icmp ult i64 %32, %34
  br i1 %35, label %36, label %100

36:                                               ; preds = %30
  %37 = load i32, i32* %6, align 4
  %38 = sext i32 %37 to i64
  %39 = getelementptr inbounds [100000 x i8], [100000 x i8]* %9, i64 0, i64 %38
  %40 = load i8, i8* %39, align 1
  %41 = sext i8 %40 to i32
  %42 = sub nsw i32 %41, 97
  %43 = sext i32 %42 to i64
  %44 = getelementptr inbounds [26 x i32], [26 x i32]* %2, i64 0, i64 %43
  %45 = load i32, i32* %44, align 4
  %46 = add nsw i32 %45, 1
  store i32 %46, i32* %44, align 4
  %47 = load i32, i32* %6, align 4
  %48 = sext i32 %47 to i64
  %49 = getelementptr inbounds [100000 x i8], [100000 x i8]* %9, i64 0, i64 %48
  %50 = load i8, i8* %49, align 1
  %51 = sext i8 %50 to i32
  %52 = sub nsw i32 %51, 97
  %53 = sext i32 %52 to i64
  %54 = getelementptr inbounds [26 x i32], [26 x i32]* %2, i64 0, i64 %53
  %55 = load i32, i32* %54, align 4
  %56 = icmp eq i32 %55, 1
  br i1 %56, label %57, label %96

57:                                               ; preds = %36
  %58 = load i8, i8* %10, align 1
  %59 = sext i8 %58 to i32
  %60 = icmp eq i32 %59, 124
  br i1 %60, label %61, label %96

61:                                               ; preds = %57
  store i32 0, i32* %7, align 4
  %62 = load i32, i32* %6, align 4
  %63 = add nsw i32 %62, 1
  store i32 %63, i32* %8, align 4
  br label %64

64:                                               ; preds = %84, %61
  %65 = load i32, i32* %8, align 4
  %66 = sext i32 %65 to i64
  %67 = getelementptr inbounds [100000 x i8], [100000 x i8]* %9, i64 0, i64 0
  %68 = call i64 @strlen(i8* %67) #3
  %69 = icmp ult i64 %66, %68
  br i1 %69, label %70, label %87

70:                                               ; preds = %64
  %71 = load i32, i32* %8, align 4
  %72 = sext i32 %71 to i64
  %73 = getelementptr inbounds [100000 x i8], [100000 x i8]* %9, i64 0, i64 %72
  %74 = load i8, i8* %73, align 1
  %75 = sext i8 %74 to i32
  %76 = load i32, i32* %6, align 4
  %77 = sext i32 %76 to i64
  %78 = getelementptr inbounds [100000 x i8], [100000 x i8]* %9, i64 0, i64 %77
  %79 = load i8, i8* %78, align 1
  %80 = sext i8 %79 to i32
  %81 = icmp eq i32 %75, %80
  br i1 %81, label %82, label %83

82:                                               ; preds = %70
  store i32 1, i32* %7, align 4
  br label %83

83:                                               ; preds = %82, %70
  br label %84

84:                                               ; preds = %83
  %85 = load i32, i32* %8, align 4
  %86 = add nsw i32 %85, 1
  store i32 %86, i32* %8, align 4
  br label %64

87:                                               ; preds = %64
  %88 = load i32, i32* %7, align 4
  %89 = icmp eq i32 %88, 0
  br i1 %89, label %90, label %95

90:                                               ; preds = %87
  %91 = load i32, i32* %6, align 4
  %92 = sext i32 %91 to i64
  %93 = getelementptr inbounds [100000 x i8], [100000 x i8]* %9, i64 0, i64 %92
  %94 = load i8, i8* %93, align 1
  store i8 %94, i8* %10, align 1
  br label %95

95:                                               ; preds = %90, %87
  br label %96

96:                                               ; preds = %95, %57, %36
  br label %97

97:                                               ; preds = %96
  %98 = load i32, i32* %6, align 4
  %99 = add nsw i32 %98, 1
  store i32 %99, i32* %6, align 4
  br label %30

100:                                              ; preds = %30
  store i32 0, i32* %7, align 4
  store i32 0, i32* %4, align 4
  br label %101

101:                                              ; preds = %112, %100
  %102 = load i32, i32* %4, align 4
  %103 = icmp sle i32 %102, 25
  br i1 %103, label %104, label %115

104:                                              ; preds = %101
  %105 = load i32, i32* %4, align 4
  %106 = sext i32 %105 to i64
  %107 = getelementptr inbounds [26 x i32], [26 x i32]* %2, i64 0, i64 %106
  %108 = load i32, i32* %107, align 4
  %109 = icmp eq i32 %108, 1
  br i1 %109, label %110, label %111

110:                                              ; preds = %104
  store i32 1, i32* %7, align 4
  br label %111

111:                                              ; preds = %110, %104
  br label %112

112:                                              ; preds = %111
  %113 = load i32, i32* %4, align 4
  %114 = add nsw i32 %113, 1
  store i32 %114, i32* %4, align 4
  br label %101

115:                                              ; preds = %101
  %116 = load i32, i32* %7, align 4
  %117 = icmp eq i32 %116, 0
  br i1 %117, label %118, label %120

118:                                              ; preds = %115
  %119 = call i32 (i8*, ...) @printf(i8* getelementptr inbounds ([4 x i8], [4 x i8]* @.str.2, i64 0, i64 0))
  br label %124

120:                                              ; preds = %115
  %121 = load i8, i8* %10, align 1
  %122 = sext i8 %121 to i32
  %123 = call i32 (i8*, ...) @printf(i8* getelementptr inbounds ([4 x i8], [4 x i8]* @.str.3, i64 0, i64 0), i32 %122)
  br label %124

124:                                              ; preds = %120, %118
  br label %125

125:                                              ; preds = %124
  %126 = load i32, i32* %5, align 4
  %127 = add nsw i32 %126, 1
  store i32 %127, i32* %5, align 4
  br label %12

128:                                              ; preds = %12
  %129 = load i32, i32* %1, align 4
  ret i32 %129
}

declare dso_local i32 @__isoc99_scanf(i8*, ...) #1

; Function Attrs: nounwind readonly
declare dso_local i64 @strlen(i8*) #2

declare dso_local i32 @printf(i8*, ...) #1


!llvm.module.flags = !{!0}
!llvm.ident = !{!1}

!0 = !{i32 1, !"wchar_size", i32 4}
!1 = !{!"clang version 10.0.0-4ubuntu1 "}
